target datalayout = "e-m:e-p270:32:32-p271:32:32-p272:64:64-i64:64-i128:128-f80:128-n8:16:32:64-S128"
target triple = "x86_64-pc-linux-gnu"

%struct.FT_Outline_ = type { i16, i16, ptr, ptr, ptr, i32 }
%struct.FT_Raster_Params_ = type { ptr, ptr, i32, ptr, ptr, ptr, ptr, ptr, %struct.FT_BBox_ }
%struct.FT_BBox_ = type { i64, i64, i64, i64 }
%struct.FT_Bitmap_ = type { i32, i32, i32, ptr, i16, i8, i8, ptr }
%struct.FT_RendererRec_ = type { %struct.FT_ModuleRec_, ptr, i32, %struct.FT_Glyph_Class_, ptr, ptr, ptr }
%struct.FT_ModuleRec_ = type { ptr, ptr, ptr }
%struct.FT_Glyph_Class_ = type { i64, i32, ptr, ptr, ptr, ptr, ptr, ptr }
%struct.FT_GlyphSlotRec_ = type { ptr, ptr, ptr, i32, %struct.FT_Generic_, %struct.FT_Glyph_Metrics_, i64, i64, %struct.FT_Vector_, i32, %struct.FT_Bitmap_, i32, i32, %struct.FT_Outline_, i32, ptr, ptr, i64, i64, i64, ptr, ptr }
%struct.FT_Generic_ = type { ptr, ptr }
%struct.FT_Glyph_Metrics_ = type { i64, i64, i64, i64, i64, i64, i64, i64 }
%struct.FT_Vector_ = type { i64, i64 }
%struct.FT_Slot_InternalRec_ = type { ptr, i32, i8, %struct.FT_Matrix_, %struct.FT_Vector_, ptr, i32 }
%struct.FT_Matrix_ = type { i64, i64, i64, i64 }

; Function Attrs: nounwind uwtable
define internal i32 @ft_raster1_render(ptr noundef %0, ptr noundef %1, i32 noundef %2, ptr noundef %3) #0 {
  %5 = alloca i32, align 4
  %6 = alloca ptr, align 8
  %7 = alloca ptr, align 8
  %8 = alloca i32, align 4
  %9 = alloca ptr, align 8
  %10 = alloca i32, align 4
  %11 = alloca ptr, align 8
  %12 = alloca ptr, align 8
  %13 = alloca ptr, align 8
  %14 = alloca i64, align 8
  %15 = alloca i64, align 8
  %16 = alloca %struct.FT_Raster_Params_, align 8
  %17 = alloca i32, align 4
  store ptr %0, ptr %6, align 8, !tbaa !62
  store ptr %1, ptr %7, align 8, !tbaa !78
  store i32 %2, ptr %8, align 4, !tbaa !15
  store ptr %3, ptr %9, align 8, !tbaa !50
  call void @llvm.lifetime.start.p0(i64 4, ptr %10) #5
  store i32 0, ptr %10, align 4, !tbaa !15
  call void @llvm.lifetime.start.p0(i64 8, ptr %11) #5
  %18 = load ptr, ptr %7, align 8, !tbaa !78
  %19 = getelementptr inbounds nuw %struct.FT_GlyphSlotRec_, ptr %18, i32 0, i32 13
  store ptr %19, ptr %11, align 8, !tbaa !31
  call void @llvm.lifetime.start.p0(i64 8, ptr %12) #5
  %20 = load ptr, ptr %7, align 8, !tbaa !78
  %21 = getelementptr inbounds nuw %struct.FT_GlyphSlotRec_, ptr %20, i32 0, i32 10
  store ptr %21, ptr %12, align 8, !tbaa !34
  call void @llvm.lifetime.start.p0(i64 8, ptr %13) #5
  %22 = load ptr, ptr %6, align 8, !tbaa !62
  %23 = getelementptr inbounds nuw %struct.FT_RendererRec_, ptr %22, i32 0, i32 0
  %24 = getelementptr inbounds nuw %struct.FT_ModuleRec_, ptr %23, i32 0, i32 2
  %25 = load ptr, ptr %24, align 8, !tbaa !80
  store ptr %25, ptr %13, align 8, !tbaa !9
  call void @llvm.lifetime.start.p0(i64 8, ptr %14) #5
  store i64 0, ptr %14, align 8, !tbaa !23
  call void @llvm.lifetime.start.p0(i64 8, ptr %15) #5
  store i64 0, ptr %15, align 8, !tbaa !23
  call void @llvm.lifetime.start.p0(i64 96, ptr %16) #5
  %26 = load ptr, ptr %7, align 8, !tbaa !78
  %27 = getelementptr inbounds nuw %struct.FT_GlyphSlotRec_, ptr %26, i32 0, i32 9
  %28 = load i32, ptr %27, align 8, !tbaa !81
  %29 = load ptr, ptr %6, align 8, !tbaa !62
  %30 = getelementptr inbounds nuw %struct.FT_RendererRec_, ptr %29, i32 0, i32 2
  %31 = load i32, ptr %30, align 8, !tbaa !89
  %32 = icmp ne i32 %28, %31
  br i1 %32, label %33, label %34

33:                                               ; preds = %4
  store i32 6, ptr %10, align 4, !tbaa !15
  br label %143

34:                                               ; preds = %4
  %35 = load i32, ptr %8, align 4, !tbaa !15
  %36 = icmp ne i32 %35, 2
  br i1 %36, label %37, label %38

37:                                               ; preds = %34
  store i32 19, ptr %5, align 4
  store i32 1, ptr %17, align 4
  br label %188

38:                                               ; preds = %34
  %39 = load ptr, ptr %7, align 8, !tbaa !78
  %40 = getelementptr inbounds nuw %struct.FT_GlyphSlotRec_, ptr %39, i32 0, i32 21
  %41 = load ptr, ptr %40, align 8, !tbaa !90
  %42 = getelementptr inbounds nuw %struct.FT_Slot_InternalRec_, ptr %41, i32 0, i32 1
  %43 = load i32, ptr %42, align 8, !tbaa !91
  %44 = and i32 %43, 1
  %45 = icmp ne i32 %44, 0
  br i1 %45, label %46, label %62

46:                                               ; preds = %38
  br label %47

47:                                               ; preds = %46
  %48 = load ptr, ptr %13, align 8, !tbaa !9
  %49 = load ptr, ptr %12, align 8, !tbaa !34
  %50 = getelementptr inbounds nuw %struct.FT_Bitmap_, ptr %49, i32 0, i32 3
  %51 = load ptr, ptr %50, align 8, !tbaa !48
  call void @ft_mem_free(ptr noundef %48, ptr noundef %51)
  %52 = load ptr, ptr %12, align 8, !tbaa !34
  %53 = getelementptr inbounds nuw %struct.FT_Bitmap_, ptr %52, i32 0, i32 3
  store ptr null, ptr %53, align 8, !tbaa !48
  br label %54

54:                                               ; preds = %47
  br label %55

55:                                               ; preds = %54
  %56 = load ptr, ptr %7, align 8, !tbaa !78
  %57 = getelementptr inbounds nuw %struct.FT_GlyphSlotRec_, ptr %56, i32 0, i32 21
  %58 = load ptr, ptr %57, align 8, !tbaa !90
  %59 = getelementptr inbounds nuw %struct.FT_Slot_InternalRec_, ptr %58, i32 0, i32 1
  %60 = load i32, ptr %59, align 8, !tbaa !91
  %61 = and i32 %60, -2
  store i32 %61, ptr %59, align 8, !tbaa !91
  br label %62

62:                                               ; preds = %55, %38
  %63 = load ptr, ptr %7, align 8, !tbaa !78
  %64 = load i32, ptr %8, align 4, !tbaa !15
  %65 = load ptr, ptr %9, align 8, !tbaa !50
  %66 = call zeroext i8 @ft_glyphslot_preset_bitmap(ptr noundef %63, i32 noundef %64, ptr noundef %65)
  %67 = icmp ne i8 %66, 0
  br i1 %67, label %68, label %69

68:                                               ; preds = %62
  store i32 98, ptr %10, align 4, !tbaa !15
  br label %143

69:                                               ; preds = %62
  %70 = load ptr, ptr %13, align 8, !tbaa !9
  %71 = load ptr, ptr %12, align 8, !tbaa !34
  %72 = getelementptr inbounds nuw %struct.FT_Bitmap_, ptr %71, i32 0, i32 2
  %73 = load i32, ptr %72, align 8, !tbaa !57
  %74 = sext i32 %73 to i64
  %75 = load ptr, ptr %12, align 8, !tbaa !34
  %76 = getelementptr inbounds nuw %struct.FT_Bitmap_, ptr %75, i32 0, i32 0
  %77 = load i32, ptr %76, align 8, !tbaa !47
  %78 = zext i32 %77 to i64
  %79 = call ptr @ft_mem_realloc(ptr noundef %70, i64 noundef %74, i64 noundef 0, i64 noundef %78, ptr noundef null, ptr noundef %10)
  %80 = load ptr, ptr %12, align 8, !tbaa !34
  %81 = getelementptr inbounds nuw %struct.FT_Bitmap_, ptr %80, i32 0, i32 3
  store ptr %79, ptr %81, align 8, !tbaa !48
  %82 = load i32, ptr %10, align 4, !tbaa !15
  %83 = icmp ne i32 %82, 0
  br i1 %83, label %84, label %85

84:                                               ; preds = %69
  br label %143

85:                                               ; preds = %69
  %86 = load ptr, ptr %7, align 8, !tbaa !78
  %87 = getelementptr inbounds nuw %struct.FT_GlyphSlotRec_, ptr %86, i32 0, i32 21
  %88 = load ptr, ptr %87, align 8, !tbaa !90
  %89 = getelementptr inbounds nuw %struct.FT_Slot_InternalRec_, ptr %88, i32 0, i32 1
  %90 = load i32, ptr %89, align 8, !tbaa !91
  %91 = or i32 %90, 1
  store i32 %91, ptr %89, align 8, !tbaa !91
  %92 = load ptr, ptr %7, align 8, !tbaa !78
  %93 = getelementptr inbounds nuw %struct.FT_GlyphSlotRec_, ptr %92, i32 0, i32 11
  %94 = load i32, ptr %93, align 8, !tbaa !95
  %95 = sub nsw i32 0, %94
  %96 = mul nsw i32 %95, 64
  %97 = sext i32 %96 to i64
  store i64 %97, ptr %14, align 8, !tbaa !23
  %98 = load ptr, ptr %12, align 8, !tbaa !34
  %99 = getelementptr inbounds nuw %struct.FT_Bitmap_, ptr %98, i32 0, i32 0
  %100 = load i32, ptr %99, align 8, !tbaa !47
  %101 = load ptr, ptr %7, align 8, !tbaa !78
  %102 = getelementptr inbounds nuw %struct.FT_GlyphSlotRec_, ptr %101, i32 0, i32 12
  %103 = load i32, ptr %102, align 4, !tbaa !96
  %104 = sub nsw i32 %100, %103
  %105 = mul nsw i32 %104, 64
  %106 = sext i32 %105 to i64
  store i64 %106, ptr %15, align 8, !tbaa !23
  %107 = load ptr, ptr %9, align 8, !tbaa !50
  %108 = icmp ne ptr %107, null
  br i1 %108, label %109, label %120

109:                                              ; preds = %85
  %110 = load ptr, ptr %9, align 8, !tbaa !50
  %111 = getelementptr inbounds nuw %struct.FT_Vector_, ptr %110, i32 0, i32 0
  %112 = load i64, ptr %111, align 8, !tbaa !97
  %113 = load i64, ptr %14, align 8, !tbaa !23
  %114 = add nsw i64 %113, %112
  store i64 %114, ptr %14, align 8, !tbaa !23
  %115 = load ptr, ptr %9, align 8, !tbaa !50
  %116 = getelementptr inbounds nuw %struct.FT_Vector_, ptr %115, i32 0, i32 1
  %117 = load i64, ptr %116, align 8, !tbaa !98
  %118 = load i64, ptr %15, align 8, !tbaa !23
  %119 = add nsw i64 %118, %117
  store i64 %119, ptr %15, align 8, !tbaa !23
  br label %120

120:                                              ; preds = %109, %85
  %121 = load i64, ptr %14, align 8, !tbaa !23
  %122 = icmp ne i64 %121, 0
  br i1 %122, label %126, label %123

123:                                              ; preds = %120
  %124 = load i64, ptr %15, align 8, !tbaa !23
  %125 = icmp ne i64 %124, 0
  br i1 %125, label %126, label %130

126:                                              ; preds = %123, %120
  %127 = load ptr, ptr %11, align 8, !tbaa !31
  %128 = load i64, ptr %14, align 8, !tbaa !23
  %129 = load i64, ptr %15, align 8, !tbaa !23
  call void @FT_Outline_Translate(ptr noundef %127, i64 noundef %128, i64 noundef %129)
  br label %130

130:                                              ; preds = %126, %123
  %131 = load ptr, ptr %12, align 8, !tbaa !34
  %132 = getelementptr inbounds nuw %struct.FT_Raster_Params_, ptr %16, i32 0, i32 0
  store ptr %131, ptr %132, align 8, !tbaa !33
  %133 = load ptr, ptr %11, align 8, !tbaa !31
  %134 = getelementptr inbounds nuw %struct.FT_Raster_Params_, ptr %16, i32 0, i32 1
  store ptr %133, ptr %134, align 8, !tbaa !27
  %135 = getelementptr inbounds nuw %struct.FT_Raster_Params_, ptr %16, i32 0, i32 2
  store i32 0, ptr %135, align 8, !tbaa !44
  %136 = load ptr, ptr %6, align 8, !tbaa !62
  %137 = getelementptr inbounds nuw %struct.FT_RendererRec_, ptr %136, i32 0, i32 5
  %138 = load ptr, ptr %137, align 8, !tbaa !99
  %139 = load ptr, ptr %6, align 8, !tbaa !62
  %140 = getelementptr inbounds nuw %struct.FT_RendererRec_, ptr %139, i32 0, i32 4
  %141 = load ptr, ptr %140, align 8, !tbaa !77
  %142 = call i32 %138(ptr noundef %141, ptr noundef %16)
  store i32 %142, ptr %10, align 4, !tbaa !15
  br label %143

143:                                              ; preds = %130, %84, %68, %33
  %144 = load i32, ptr %10, align 4, !tbaa !15
  %145 = icmp ne i32 %144, 0
  br i1 %145, label %149, label %146

146:                                              ; preds = %143
  %147 = load ptr, ptr %7, align 8, !tbaa !78
  %148 = getelementptr inbounds nuw %struct.FT_GlyphSlotRec_, ptr %147, i32 0, i32 9
  store i32 1651078259, ptr %148, align 8, !tbaa !81
  br label %174

149:                                              ; preds = %143
  %150 = load ptr, ptr %7, align 8, !tbaa !78
  %151 = getelementptr inbounds nuw %struct.FT_GlyphSlotRec_, ptr %150, i32 0, i32 21
  %152 = load ptr, ptr %151, align 8, !tbaa !90
  %153 = getelementptr inbounds nuw %struct.FT_Slot_InternalRec_, ptr %152, i32 0, i32 1
  %154 = load i32, ptr %153, align 8, !tbaa !91
  %155 = and i32 %154, 1
  %156 = icmp ne i32 %155, 0
  br i1 %156, label %157, label %173

157:                                              ; preds = %149
  br label %158

158:                                              ; preds = %157
  %159 = load ptr, ptr %13, align 8, !tbaa !9
  %160 = load ptr, ptr %12, align 8, !tbaa !34
  %161 = getelementptr inbounds nuw %struct.FT_Bitmap_, ptr %160, i32 0, i32 3
  %162 = load ptr, ptr %161, align 8, !tbaa !48
  call void @ft_mem_free(ptr noundef %159, ptr noundef %162)
  %163 = load ptr, ptr %12, align 8, !tbaa !34
  %164 = getelementptr inbounds nuw %struct.FT_Bitmap_, ptr %163, i32 0, i32 3
  store ptr null, ptr %164, align 8, !tbaa !48
  br label %165

165:                                              ; preds = %158
  br label %166

166:                                              ; preds = %165
  %167 = load ptr, ptr %7, align 8, !tbaa !78
  %168 = getelementptr inbounds nuw %struct.FT_GlyphSlotRec_, ptr %167, i32 0, i32 21
  %169 = load ptr, ptr %168, align 8, !tbaa !90
  %170 = getelementptr inbounds nuw %struct.FT_Slot_InternalRec_, ptr %169, i32 0, i32 1
  %171 = load i32, ptr %170, align 8, !tbaa !91
  %172 = and i32 %171, -2
  store i32 %172, ptr %170, align 8, !tbaa !91
  br label %173

173:                                              ; preds = %166, %149
  br label %174

174:                                              ; preds = %173, %146
  %175 = load i64, ptr %14, align 8, !tbaa !23
  %176 = icmp ne i64 %175, 0
  br i1 %176, label %180, label %177

177:                                              ; preds = %174
  %178 = load i64, ptr %15, align 8, !tbaa !23
  %179 = icmp ne i64 %178, 0
  br i1 %179, label %180, label %186

180:                                              ; preds = %177, %174
  %181 = load ptr, ptr %11, align 8, !tbaa !31
  %182 = load i64, ptr %14, align 8, !tbaa !23
  %183 = sub nsw i64 0, %182
  %184 = load i64, ptr %15, align 8, !tbaa !23
  %185 = sub nsw i64 0, %184
  call void @FT_Outline_Translate(ptr noundef %181, i64 noundef %183, i64 noundef %185)
  br label %186

186:                                              ; preds = %180, %177
  %187 = load i32, ptr %10, align 4, !tbaa !15
  store i32 %187, ptr %5, align 4
  store i32 1, ptr %17, align 4
  br label %188

188:                                              ; preds = %186, %37
  call void @llvm.lifetime.end.p0(i64 96, ptr %16) #5
  call void @llvm.lifetime.end.p0(i64 8, ptr %15) #5
  call void @llvm.lifetime.end.p0(i64 8, ptr %14) #5
  call void @llvm.lifetime.end.p0(i64 8, ptr %13) #5
  call void @llvm.lifetime.end.p0(i64 8, ptr %12) #5
  call void @llvm.lifetime.end.p0(i64 8, ptr %11) #5
  call void @llvm.lifetime.end.p0(i64 4, ptr %10) #5
  %189 = load i32, ptr %5, align 4
  ret i32 %189
}