; Function Attrs: nounwind uwtable
define internal i32 @ft_raster1_render(ptr noundef readonly captures(none) %0, ptr noundef %1, i32 noundef %2, ptr noundef %3) #0 {
  %5 = alloca i32, align 4
  %6 = alloca %struct.FT_Raster_Params_, align 8
  call void @llvm.lifetime.start.p0(i64 4, ptr nonnull %5) #10
  store i32 0, ptr %5, align 4, !tbaa !3
  %7 = getelementptr inbounds nuw i8, ptr %1, i64 200
  %8 = getelementptr inbounds nuw i8, ptr %1, i64 152
  %9 = getelementptr inbounds nuw i8, ptr %0, i64 16
  %10 = load ptr, ptr %9, align 8, !tbaa !61
  call void @llvm.lifetime.start.p0(i64 96, ptr nonnull %6) #10
  %11 = getelementptr inbounds nuw i8, ptr %1, i64 144
  %12 = load i32, ptr %11, align 8, !tbaa !62
  %13 = getelementptr inbounds nuw i8, ptr %0, i64 32
  %14 = load i32, ptr %13, align 8, !tbaa !71
  %.not = icmp eq i32 %12, %14
  br i1 %.not, label %15, label %.thread.sink.split

15:                                               ; preds = %4
  %.not55 = icmp eq i32 %2, 2
  br i1 %.not55, label %16, label %93

16:                                               ; preds = %15
  %17 = getelementptr inbounds nuw i8, ptr %1, i64 296
  %18 = load ptr, ptr %17, align 8, !tbaa !72
  %19 = getelementptr inbounds nuw i8, ptr %18, i64 8
  %20 = load i32, ptr %19, align 8, !tbaa !73
  %21 = and i32 %20, 1
  %.not56 = icmp eq i32 %21, 0
  br i1 %.not56, label %29, label %22

22:                                               ; preds = %16
  %23 = getelementptr inbounds nuw i8, ptr %1, i64 168
  %24 = load ptr, ptr %23, align 8, !tbaa !32
  tail call void @ft_mem_free(ptr noundef %10, ptr noundef %24) #10
  store ptr null, ptr %23, align 8, !tbaa !32
  %25 = load ptr, ptr %17, align 8, !tbaa !72
  %26 = getelementptr inbounds nuw i8, ptr %25, i64 8
  %27 = load i32, ptr %26, align 8, !tbaa !73
  %28 = and i32 %27, -2
  store i32 %28, ptr %26, align 8, !tbaa !73
  br label %29

29:                                               ; preds = %22, %16
  %30 = tail call zeroext i8 @ft_glyphslot_preset_bitmap(ptr noundef nonnull %1, i32 noundef 2, ptr noundef %3) #10
  %.not57 = icmp eq i8 %30, 0
  br i1 %.not57, label %31, label %.thread.sink.split

31:                                               ; preds = %29
  %32 = getelementptr inbounds nuw i8, ptr %1, i64 160
  %33 = load i32, ptr %32, align 8, !tbaa !42
  %34 = sext i32 %33 to i64
  %35 = load i32, ptr %8, align 8, !tbaa !31
  %36 = zext i32 %35 to i64
  %37 = call ptr @ft_mem_realloc(ptr noundef %10, i64 noundef %34, i64 noundef 0, i64 noundef %36, ptr noundef null, ptr noundef nonnull %5) #10
  %38 = getelementptr inbounds nuw i8, ptr %1, i64 168
  store ptr %37, ptr %38, align 8, !tbaa !32
  %39 = load i32, ptr %5, align 4, !tbaa !3
  %.not58 = icmp eq i32 %39, 0
  br i1 %.not58, label %40, label %.thread

40:                                               ; preds = %31
  %41 = load ptr, ptr %17, align 8, !tbaa !72
  %42 = getelementptr inbounds nuw i8, ptr %41, i64 8
  %43 = load i32, ptr %42, align 8, !tbaa !73
  %44 = or i32 %43, 1
  store i32 %44, ptr %42, align 8, !tbaa !73
  %45 = getelementptr inbounds nuw i8, ptr %1, i64 192
  %46 = load i32, ptr %45, align 8, !tbaa !77
  %.neg = mul i32 %46, -64
  %47 = sext i32 %.neg to i64
  %48 = load i32, ptr %8, align 8, !tbaa !31
  %49 = getelementptr inbounds nuw i8, ptr %1, i64 196
  %50 = load i32, ptr %49, align 4, !tbaa !78
  %51 = sub nsw i32 %48, %50
  %52 = shl nsw i32 %51, 6
  %53 = sext i32 %52 to i64
  %.not59 = icmp eq ptr %3, null
  br i1 %.not59, label %60, label %54

54:                                               ; preds = %40
  %55 = load i64, ptr %3, align 8, !tbaa !79
  %56 = add nsw i64 %55, %47
  %57 = getelementptr inbounds nuw i8, ptr %3, i64 8
  %58 = load i64, ptr %57, align 8, !tbaa !80
  %59 = add nsw i64 %58, %53
  br label %60

60:                                               ; preds = %54, %40
  %.151 = phi i64 [ %56, %54 ], [ %47, %40 ]
  %.1 = phi i64 [ %59, %54 ], [ %53, %40 ]
  %61 = icmp ne i64 %.151, 0
  %62 = icmp ne i64 %.1, 0
  %or.cond = select i1 %61, i1 true, i1 %62
  br i1 %or.cond, label %63, label %64

63:                                               ; preds = %60
  call void @FT_Outline_Translate(ptr noundef nonnull %7, i64 noundef %.151, i64 noundef %.1) #10
  br label %64

64:                                               ; preds = %63, %60
  store ptr %8, ptr %6, align 8, !tbaa !17
  %65 = getelementptr inbounds nuw i8, ptr %6, i64 8
  store ptr %7, ptr %65, align 8, !tbaa !12
  %66 = getelementptr inbounds nuw i8, ptr %6, i64 16
  store i32 0, ptr %66, align 8, !tbaa !28
  %67 = getelementptr inbounds nuw i8, ptr %0, i64 112
  %68 = load ptr, ptr %67, align 8, !tbaa !81
  %69 = getelementptr inbounds nuw i8, ptr %0, i64 104
  %70 = load ptr, ptr %69, align 8, !tbaa !60
  %71 = call i32 %68(ptr noundef %70, ptr noundef nonnull %6) #10
  store i32 %71, ptr %5, align 4, !tbaa !3
  %.not60 = icmp eq i32 %71, 0
  br i1 %.not60, label %72, label %.thread

72:                                               ; preds = %64
  store i32 1651078259, ptr %11, align 8, !tbaa !62
  br label %85

.thread.sink.split:                               ; preds = %29, %4
  %.sink = phi i32 [ 6, %4 ], [ 98, %29 ]
  store i32 %.sink, ptr %5, align 4, !tbaa !3
  br label %.thread

.thread:                                          ; preds = %.thread.sink.split, %31, %64
  %.068 = phi i64 [ %.1, %64 ], [ 0, %31 ], [ 0, %.thread.sink.split ]
  %.05066 = phi i64 [ %.151, %64 ], [ 0, %31 ], [ 0, %.thread.sink.split ]
  %73 = getelementptr inbounds nuw i8, ptr %1, i64 296
  %74 = load ptr, ptr %73, align 8, !tbaa !72
  %75 = getelementptr inbounds nuw i8, ptr %74, i64 8
  %76 = load i32, ptr %75, align 8, !tbaa !73
  %77 = and i32 %76, 1
  %.not61 = icmp eq i32 %77, 0
  br i1 %.not61, label %85, label %78

78:                                               ; preds = %.thread
  %79 = getelementptr inbounds nuw i8, ptr %1, i64 168
  %80 = load ptr, ptr %79, align 8, !tbaa !32
  call void @ft_mem_free(ptr noundef %10, ptr noundef %80) #10
  store ptr null, ptr %79, align 8, !tbaa !32
  %81 = load ptr, ptr %73, align 8, !tbaa !72
  %82 = getelementptr inbounds nuw i8, ptr %81, i64 8
  %83 = load i32, ptr %82, align 8, !tbaa !73
  %84 = and i32 %83, -2
  store i32 %84, ptr %82, align 8, !tbaa !73
  br label %85

85:                                               ; preds = %.thread, %78, %72
  %.067 = phi i64 [ %.068, %.thread ], [ %.068, %78 ], [ %.1, %72 ]
  %.05065 = phi i64 [ %.05066, %.thread ], [ %.05066, %78 ], [ %.151, %72 ]
  %86 = icmp ne i64 %.05065, 0
  %87 = icmp ne i64 %.067, 0
  %or.cond3 = select i1 %86, i1 true, i1 %87
  br i1 %or.cond3, label %88, label %91

88:                                               ; preds = %85
  %89 = sub nsw i64 0, %.05065
  %90 = sub nsw i64 0, %.067
  call void @FT_Outline_Translate(ptr noundef nonnull %7, i64 noundef %89, i64 noundef %90) #10
  br label %91

91:                                               ; preds = %85, %88
  %92 = load i32, ptr %5, align 4, !tbaa !3
  br label %93

93:                                               ; preds = %15, %91
  %.052 = phi i32 [ %92, %91 ], [ 19, %15 ]
  call void @llvm.lifetime.end.p0(i64 96, ptr nonnull %6) #10
  call void @llvm.lifetime.end.p0(i64 4, ptr nonnull %5) #10
  ret i32 %.052
}